target datalayout = "e-m:e-p270:32:32-p271:32:32-p272:64:64-i64:64-i128:128-f80:128-n8:16:32:64-S128"
target triple = "x86_64-pc-linux-gnu"

%"class.std::_Function_base" = type { %"union.std::_Any_data", ptr }
%"union.std::_Any_data" = type { %"union.std::_Nocopy_types" }
%"union.std::_Nocopy_types" = type { { i64, i64 } }
%"struct.std::pair.166" = type { i32, double }
%class.CSC_RowIterator = type { i32, i32, double, i8, %"class.std::function.197" }
%"class.std::function.197" = type { %"class.std::_Function_base", ptr }

; Function Attrs: mustprogress nounwind uwtable
define linkonce_odr noundef zeroext i1 @_ZNKSt14_Function_base8_M_emptyEv(ptr noundef nonnull align 8 dereferenceable(24) %0) #5 comdat align 2 {
  %2 = alloca ptr, align 8
  store ptr %0, ptr %2, align 8, !tbaa !421
  %3 = load ptr, ptr %2, align 8
  %4 = getelementptr inbounds nuw %"class.std::_Function_base", ptr %3, i32 0, i32 1
  %5 = load ptr, ptr %4, align 8, !tbaa !423
  %6 = icmp ne ptr %5, null
  %7 = xor i1 %6, true
  ret i1 %7
}

; Function Attrs: mustprogress uwtable
define linkonce_odr { i32, double } @_ZNKSt8functionIFSt4pairIidEiEEclEi(ptr noundef nonnull align 8 dereferenceable(32) %0, i32 noundef %1) #4 comdat align 2 {
  %3 = alloca %"struct.std::pair.166", align 8
  %4 = alloca ptr, align 8
  %5 = alloca i32, align 4
  store ptr %0, ptr %4, align 8, !tbaa !2128
  store i32 %1, ptr %5, align 4, !tbaa !28
  %6 = load ptr, ptr %4, align 8
  %7 = call noundef zeroext i1 @_ZNKSt14_Function_base8_M_emptyEv(ptr noundef nonnull align 8 dereferenceable(24) %6)
  br i1 %7, label %8, label %9

8:                                                ; preds = %2
  call void @_ZSt25__throw_bad_function_callv() #31
  unreachable

9:                                                ; preds = %2
  %10 = getelementptr inbounds nuw %"class.std::function.197", ptr %6, i32 0, i32 1
  %11 = load ptr, ptr %10, align 8, !tbaa !2130
  %12 = getelementptr inbounds nuw %"class.std::_Function_base", ptr %6, i32 0, i32 0
  %13 = call { i32, double } %11(ptr noundef nonnull align 8 dereferenceable(16) %12, ptr noundef nonnull align 4 dereferenceable(4) %5)
  %14 = getelementptr inbounds nuw { i32, double }, ptr %3, i32 0, i32 0
  %15 = extractvalue { i32, double } %13, 0
  store i32 %15, ptr %14, align 8
  %16 = getelementptr inbounds nuw { i32, double }, ptr %3, i32 0, i32 1
  %17 = extractvalue { i32, double } %13, 1
  store double %17, ptr %16, align 8
  %18 = load { i32, double }, ptr %3, align 8
  ret { i32, double } %18
}

; Function Attrs: mustprogress uwtable
define noundef double @_ZN15CSC_RowIterator3GetEi(ptr noundef nonnull align 8 dereferenceable(56) %0, i32 noundef %1) #4 align 2 {
  %3 = alloca double, align 8
  %4 = alloca ptr, align 8
  %5 = alloca i32, align 4
  %6 = alloca %"struct.std::pair.166", align 8
  %7 = alloca i32, align 4
  store ptr %0, ptr %4, align 8, !tbaa !871
  store i32 %1, ptr %5, align 4, !tbaa !28
  %8 = load ptr, ptr %4, align 8
  br label %9

9:                                                ; preds = %47, %2
  %10 = load i32, ptr %5, align 4, !tbaa !28
  %11 = getelementptr inbounds nuw %class.CSC_RowIterator, ptr %8, i32 0, i32 1
  %12 = load i32, ptr %11, align 4, !tbaa !873
  %13 = icmp sgt i32 %10, %12
  br i1 %13, label %14, label %19

14:                                               ; preds = %9
  %15 = getelementptr inbounds nuw %class.CSC_RowIterator, ptr %8, i32 0, i32 3
  %16 = load i8, ptr %15, align 8, !tbaa !876, !range !326, !noundef !327
  %17 = trunc i8 %16 to i1
  %18 = xor i1 %17, true
  br label %19

19:                                               ; preds = %14, %9
  %20 = phi i1 [ false, %9 ], [ %18, %14 ]
  br i1 %20, label %21, label %48

21:                                               ; preds = %19
  call void @llvm.lifetime.start.p0(i64 16, ptr %6) #3
  %22 = getelementptr inbounds nuw %class.CSC_RowIterator, ptr %8, i32 0, i32 4
  %23 = getelementptr inbounds nuw %class.CSC_RowIterator, ptr %8, i32 0, i32 0
  %24 = load i32, ptr %23, align 8, !tbaa !877
  %25 = call { i32, double } @_ZNKSt8functionIFSt4pairIidEiEEclEi(ptr noundef nonnull align 8 dereferenceable(32) %22, i32 noundef %24)
  %26 = getelementptr inbounds nuw { i32, double }, ptr %6, i32 0, i32 0
  %27 = extractvalue { i32, double } %25, 0
  store i32 %27, ptr %26, align 8
  %28 = getelementptr inbounds nuw { i32, double }, ptr %6, i32 0, i32 1
  %29 = extractvalue { i32, double } %25, 1
  store double %29, ptr %28, align 8
  %30 = getelementptr inbounds nuw %"struct.std::pair.166", ptr %6, i32 0, i32 0
  %31 = load i32, ptr %30, align 8, !tbaa !693
  %32 = icmp slt i32 %31, 0
  br i1 %32, label %33, label %35

33:                                               ; preds = %21
  %34 = getelementptr inbounds nuw %class.CSC_RowIterator, ptr %8, i32 0, i32 3
  store i8 1, ptr %34, align 8, !tbaa !876
  store i32 3, ptr %7, align 4
  br label %45

35:                                               ; preds = %21
  %36 = getelementptr inbounds nuw %"struct.std::pair.166", ptr %6, i32 0, i32 0
  %37 = load i32, ptr %36, align 8, !tbaa !693
  %38 = getelementptr inbounds nuw %class.CSC_RowIterator, ptr %8, i32 0, i32 1
  store i32 %37, ptr %38, align 4, !tbaa !873
  %39 = getelementptr inbounds nuw %"struct.std::pair.166", ptr %6, i32 0, i32 1
  %40 = load double, ptr %39, align 8, !tbaa !695
  %41 = getelementptr inbounds nuw %class.CSC_RowIterator, ptr %8, i32 0, i32 2
  store double %40, ptr %41, align 8, !tbaa !878
  %42 = getelementptr inbounds nuw %class.CSC_RowIterator, ptr %8, i32 0, i32 0
  %43 = load i32, ptr %42, align 8, !tbaa !877
  %44 = add nsw i32 %43, 1
  store i32 %44, ptr %42, align 8, !tbaa !877
  store i32 0, ptr %7, align 4
  br label %45

45:                                               ; preds = %35, %33
  call void @llvm.lifetime.end.p0(i64 16, ptr %6) #3
  %46 = load i32, ptr %7, align 4
  switch i32 %46, label %59 [
    i32 0, label %47
    i32 3, label %48
  ]

47:                                               ; preds = %45
  br label %9, !llvm.loop !879

48:                                               ; preds = %45, %19
  %49 = load i32, ptr %5, align 4, !tbaa !28
  %50 = getelementptr inbounds nuw %class.CSC_RowIterator, ptr %8, i32 0, i32 1
  %51 = load i32, ptr %50, align 4, !tbaa !873
  %52 = icmp eq i32 %49, %51
  br i1 %52, label %53, label %56

53:                                               ; preds = %48
  %54 = getelementptr inbounds nuw %class.CSC_RowIterator, ptr %8, i32 0, i32 2
  %55 = load double, ptr %54, align 8, !tbaa !878
  store double %55, ptr %3, align 8
  br label %57

56:                                               ; preds = %48
  store double 0.000000e+00, ptr %3, align 8
  br label %57

57:                                               ; preds = %56, %53
  %58 = load double, ptr %3, align 8
  ret double %58

59:                                               ; preds = %45
  unreachable
}