; Function Attrs: mustprogress uwtable
define noundef double @_ZN15CSC_RowIterator3GetEi(ptr noundef nonnull align 8 dereferenceable(56) %0, i32 noundef %1) local_unnamed_addr #5 align 2 {
  %3 = alloca i32, align 4
  %4 = getelementptr inbounds nuw i8, ptr %0, i64 4
  %5 = load i32, ptr %4, align 4, !tbaa !611
  %6 = icmp sgt i32 %1, %5
  br i1 %6, label %.lr.ph, label %.critedge

.lr.ph:                                           ; preds = %2
  %7 = getelementptr inbounds nuw i8, ptr %0, i64 16
  %8 = getelementptr inbounds nuw i8, ptr %0, i64 40
  %9 = getelementptr inbounds nuw i8, ptr %0, i64 24
  %10 = getelementptr inbounds nuw i8, ptr %0, i64 48
  %11 = getelementptr inbounds nuw i8, ptr %0, i64 8
  %12 = load i8, ptr %7, align 8, !tbaa !614, !range !259, !noundef !260
  %13 = trunc nuw i8 %12 to i1
  br i1 %13, label %.critedge, label %.lr.ph16

14:                                               ; preds = %24
  %15 = load i8, ptr %7, align 8, !tbaa !614, !range !259, !noundef !260
  %16 = trunc nuw i8 %15 to i1
  br i1 %16, label %.critedge, label %.lr.ph16

.lr.ph16:                                         ; preds = %.lr.ph, %14
  %17 = load i32, ptr %0, align 8, !tbaa !615
  call void @llvm.lifetime.start.p0(i64 4, ptr nonnull %3)
  store i32 %17, ptr %3, align 4, !tbaa !52
  %18 = load ptr, ptr %8, align 8, !tbaa !200
  %.not.i.i = icmp eq ptr %18, null
  br i1 %.not.i.i, label %19, label %_ZNKSt8functionIFSt4pairIidEiEEclEi.exit

19:                                               ; preds = %.lr.ph16
  call void @_ZSt25__throw_bad_function_callv() #42
  unreachable

_ZNKSt8functionIFSt4pairIidEiEEclEi.exit:         ; preds = %.lr.ph16
  %20 = load ptr, ptr %10, align 8, !tbaa !616
  %21 = call { i32, double } %20(ptr noundef nonnull align 8 dereferenceable(32) %9, ptr noundef nonnull align 4 dereferenceable(4) %3)
  call void @llvm.lifetime.end.p0(i64 4, ptr nonnull %3)
  %22 = extractvalue { i32, double } %21, 0
  %23 = icmp slt i32 %22, 0
  br i1 %23, label %.thread, label %24

.thread:                                          ; preds = %_ZNKSt8functionIFSt4pairIidEiEEclEi.exit
  store i8 1, ptr %7, align 8, !tbaa !614
  %.pre = load i32, ptr %4, align 4, !tbaa !611
  br label %.critedge

24:                                               ; preds = %_ZNKSt8functionIFSt4pairIidEiEEclEi.exit
  %25 = extractvalue { i32, double } %21, 1
  store i32 %22, ptr %4, align 4, !tbaa !611
  store double %25, ptr %11, align 8, !tbaa !617
  %26 = load i32, ptr %0, align 8, !tbaa !615
  %27 = add nsw i32 %26, 1
  store i32 %27, ptr %0, align 8, !tbaa !615
  %28 = icmp sgt i32 %1, %22
  br i1 %28, label %14, label %.critedge

.critedge:                                        ; preds = %24, %14, %.lr.ph, %2, %.thread
  %29 = phi i32 [ %5, %2 ], [ %.pre, %.thread ], [ %5, %.lr.ph ], [ %22, %14 ], [ %22, %24 ]
  %30 = icmp eq i32 %1, %29
  %31 = getelementptr inbounds nuw i8, ptr %0, i64 8
  %32 = load double, ptr %31, align 8
  %.06 = select i1 %30, double %32, double 0.000000e+00
  ret double %.06
}